; Function Attrs: mustprogress nofree norecurse nounwind willreturn memory(read, argmem: readwrite, inaccessiblemem: readwrite) uwtable
define hidden noundef zeroext i1 @_ZNK11ZForwarding41in_place_relocation_is_below_top_at_startE7zoffset(ptr noundef nonnull align 8 dereferenceable(184) %0, i64 noundef %1) local_unnamed_addr #2 align 2 {
  %3 = getelementptr inbounds i8, ptr %0, i64 176
  %4 = load volatile ptr, ptr %3, align 8
  %5 = tail call align 8 ptr @llvm.threadlocal.address.p0(ptr align 8 @_ZN6Thread12_thr_currentE)
  %6 = load ptr, ptr %5, align 8
  %7 = icmp eq ptr %4, %6
  %8 = getelementptr inbounds i8, ptr %0, i64 168
  %9 = load i64, ptr %8, align 8
  %10 = icmp ugt i64 %9, %1
  %11 = select i1 %7, i1 %10, i1 false
  ret i1 %11
}